(lp0
(dp1
S'graph'
p2
(dp3
S'nodes'
p4
(lp5
(dp6
S'name'
p7
S'0'
p8
sS'value'
p9
S'N'
p10
sa(dp11
g7
S'1'
p12
sg9
S'C'
p13
sa(dp14
g7
S'2'
p15
sg9
g13
sa(dp16
g7
S'3'
p17
sg9
S'Na'
p18
sasS'links'
p19
(lp20
(dp21
S'source'
p22
g8
sS'target'
p23
g17
sa(dp24
g22
g12
sg23
g15
sa(dp25
g22
g12
sg23
g17
sa(dp26
g22
g15
sg23
g17
sassS'graph_id'
p27
g8
sS'string'
p28
S'C1C[Na]=1.N'
p29
sa(dp30
g2
(dp31
g4
(lp32
(dp33
g7
g8
sg9
S'O'
p34
sa(dp35
g7
g12
sg9
g10
sa(dp36
g7
g15
sg9
g13
sa(dp37
g7
g17
sg9
S'Cl'
p38
sa(dp39
g7
S'4'
p40
sg9
g38
sasg19
(lp41
(dp42
g22
g8
sg23
g12
sa(dp43
g22
g8
sg23
g15
sa(dp44
g22
g12
sg23
g15
sa(dp45
g22
g12
sg23
g17
sa(dp46
g22
g15
sg23
g40
sassg27
g12
sg28
S'O=C(Cl)NCl'
p47
sa(dp48
g2
(dp49
g4
(lp50
(dp51
g7
g8
sg9
g34
sa(dp52
g7
g12
sg9
g10
sa(dp53
g7
g15
sg9
g34
sa(dp54
g7
g17
sg9
g13
sa(dp55
g7
g40
sg9
g38
sasg19
(lp56
(dp57
g22
g8
sg23
g12
sa(dp58
g22
g12
sg23
g15
sa(dp59
g22
g12
sg23
g17
sa(dp60
g22
g17
sg23
g40
sassg27
g15
sg28
S'O.ONCCl'
p61
sa(dp62
g2
(dp63
g4
(lp64
(dp65
g7
g8
sg9
g34
sa(dp66
g7
g12
sg9
g10
sa(dp67
g7
g15
sg9
g13
sa(dp68
g7
g17
sg9
g13
sasg19
(lp69
(dp70
g22
g8
sg23
g12
sa(dp71
g22
g8
sg23
g15
sa(dp72
g22
g8
sg23
g17
sa(dp73
g22
g12
sg23
g15
sa(dp74
g22
g12
sg23
g17
sassg27
g17
sg28
S'C1N2CO=21'
p75
sa(dp76
g2
(dp77
g4
(lp78
(dp79
g7
g8
sg9
g10
sa(dp80
g7
g12
sg9
g13
sa(dp81
g7
g15
sg9
S'Br'
p82
sa(dp83
g7
g17
sg9
S'F'
p84
sa(dp85
g7
g40
sg9
g82
sasg19
(lp86
(dp87
g22
g8
sg23
g15
sa(dp88
g22
g12
sg23
g15
sa(dp89
g22
g12
sg23
g17
sa(dp90
g22
g12
sg23
g40
sa(dp91
g22
g15
sg23
g17
sassg27
g40
sg28
S'NBr=C(F)=Br'
p92
sa(dp93
g2
(dp94
g4
(lp95
(dp96
g7
g8
sg9
g34
sa(dp97
g7
g12
sg9
g10
sa(dp98
g7
g15
sg9
g13
sa(dp99
g7
g17
sg9
g13
sa(dp100
g7
g40
sg9
g18
sasg19
(lp101
(dp102
g22
g8
sg23
g12
sa(dp103
g22
g8
sg23
g15
sa(dp104
g22
g12
sg23
g15
sa(dp105
g22
g15
sg23
g17
sa(dp106
g22
g15
sg23
g40
sa(dp107
g22
g17
sg23
g40
sassg27
S'5'
p108
sg28
S'C1[Na]=C12N=O2'
p109
sa(dp110
g2
(dp111
g4
(lp112
(dp113
g7
g8
sg9
g10
sa(dp114
g7
g12
sg9
g13
sa(dp115
g7
g15
sg9
g13
sa(dp116
g7
g17
sg9
g82
sa(dp117
g7
g40
sg9
g84
sa(dp118
g7
g108
sg9
g34
sasg19
(lp119
(dp120
g22
g8
sg23
g12
sa(dp121
g22
g8
sg23
g15
sa(dp122
g22
g8
sg23
g17
sa(dp123
g22
g8
sg23
g108
sa(dp124
g22
g15
sg23
g17
sa(dp125
g22
g15
sg23
g108
sa(dp126
g22
g17
sg23
g40
sassg27
S'6'
p127
sg28
S'CN1=OC=Br1.F'
p128
sa(dp129
g2
(dp130
g4
(lp131
(dp132
g7
g8
sg9
g10
sa(dp133
g7
g12
sg9
g13
sa(dp134
g7
g15
sg9
g82
sa(dp135
g7
g17
sg9
g84
sasg19
(lp136
(dp137
g22
g8
sg23
g15
sa(dp138
g22
g8
sg23
g17
sa(dp139
g22
g12
sg23
g15
sa(dp140
g22
g15
sg23
g17
sassg27
S'7'
p141
sg28
S'C=BrNF'
p142
sa(dp143
g2
(dp144
g4
(lp145
(dp146
g7
g8
sg9
g34
sa(dp147
g7
g12
sg9
g10
sa(dp148
g7
g15
sg9
g10
sasg19
(lp149
(dp150
g22
g8
sg23
g12
sa(dp151
g22
g8
sg23
g15
sassg27
S'8'
p152
sg28
S'N.NO'
p153
sa(dp154
g2
(dp155
g4
(lp156
(dp157
g7
g8
sg9
g13
sa(dp158
g7
g12
sg9
g13
sa(dp159
g7
g15
sg9
g18
sasg19
(lp160
(dp161
g22
g8
sg23
g12
sa(dp162
g22
g8
sg23
g15
sa(dp163
g22
g12
sg23
g15
sassg27
S'9'
p164
sg28
S'C1C[Na]=1'
p165
sa.